; Function Attrs: nounwind uwtable
define internal fastcc noalias noundef ptr @Abc_NtkCollectLatchValuesIvy(ptr noundef readonly captures(none) %0, i32 noundef %1) unnamed_addr #0 {
  %3 = getelementptr i8, ptr %0, i64 128
  %.val18 = load i32, ptr %3, align 8, !tbaa !25
  %4 = tail call noalias dereferenceable_or_null(16) ptr @malloc(i64 noundef 16) #16
  %5 = add i32 %.val18, -1
  %or.cond.i = icmp ult i32 %5, 15
  %spec.store.select.i = select i1 %or.cond.i, i32 16, i32 %.val18
  %6 = getelementptr inbounds nuw i8, ptr %4, i64 4
  store i32 0, ptr %6, align 4, !tbaa !58
  store i32 %spec.store.select.i, ptr %4, align 8, !tbaa !59
  %.not.i = icmp eq i32 %spec.store.select.i, 0
  br i1 %.not.i, label %Vec_IntAlloc.exit, label %7

7:                                                ; preds = %2
  %8 = sext i32 %spec.store.select.i to i64
  %9 = shl nsw i64 %8, 2
  %10 = tail call noalias ptr @malloc(i64 noundef %9) #16
  br label %Vec_IntAlloc.exit

Vec_IntAlloc.exit:                                ; preds = %2, %7
  %11 = phi ptr [ %10, %7 ], [ null, %2 ]
  %12 = getelementptr inbounds nuw i8, ptr %4, i64 8
  store ptr %11, ptr %12, align 8, !tbaa !26
  %13 = getelementptr inbounds nuw i8, ptr %0, i64 80
  %14 = load ptr, ptr %13, align 8, !tbaa !60
  %15 = getelementptr i8, ptr %14, i64 4
  %.val42 = load i32, ptr %15, align 4, !tbaa !35
  %16 = icmp sgt i32 %.val42, 0
  br i1 %16, label %.lr.ph, label %.critedge

.lr.ph:                                           ; preds = %Vec_IntAlloc.exit
  %.not14 = icmp eq i32 %1, 0
  br label %17

17:                                               ; preds = %.lr.ph, %90
  %18 = phi ptr [ %11, %.lr.ph ], [ %.pre.i55, %90 ]
  %19 = phi ptr [ %11, %.lr.ph ], [ %.pre.i2651, %90 ]
  %20 = phi ptr [ %11, %.lr.ph ], [ %.pre.i3347, %90 ]
  %indvars.iv = phi i64 [ 0, %.lr.ph ], [ %indvars.iv.next, %90 ]
  %21 = phi ptr [ %14, %.lr.ph ], [ %91, %90 ]
  %22 = getelementptr i8, ptr %21, i64 8
  %.val19.val = load ptr, ptr %22, align 8, !tbaa !37
  %23 = getelementptr inbounds nuw ptr, ptr %.val19.val, i64 %indvars.iv
  %24 = load ptr, ptr %23, align 8, !tbaa !38
  %25 = getelementptr i8, ptr %24, i64 20
  %.val20 = load i32, ptr %25, align 4
  %26 = and i32 %.val20, 15
  %.not = icmp eq i32 %26, 8
  br i1 %.not, label %27, label %90

27:                                               ; preds = %17
  br i1 %.not14, label %28, label %30

28:                                               ; preds = %27
  %29 = getelementptr i8, ptr %24, i64 56
  %.val21 = load ptr, ptr %29, align 8, !tbaa !33
  %magicptr41 = ptrtoint ptr %.val21 to i64
  switch i64 %magicptr41, label %90 [
    i64 3, label %30
    i64 2, label %49
    i64 1, label %68
  ]

30:                                               ; preds = %28, %27
  %31 = load i32, ptr %6, align 4, !tbaa !58
  %32 = load i32, ptr %4, align 8, !tbaa !59
  %33 = icmp eq i32 %31, %32
  br i1 %33, label %34, label %.sink.split

34:                                               ; preds = %30
  %35 = icmp slt i32 %31, 16
  br i1 %35, label %36, label %41

36:                                               ; preds = %34
  %.not9.i.i = icmp eq ptr %18, null
  br i1 %.not9.i.i, label %39, label %37

37:                                               ; preds = %36
  %38 = tail call dereferenceable_or_null(64) ptr @realloc(ptr noundef nonnull %18, i64 noundef 64) #17
  br label %.sink.split.sink.split

39:                                               ; preds = %36
  %40 = tail call noalias dereferenceable_or_null(64) ptr @malloc(i64 noundef 64) #16
  br label %.sink.split.sink.split

41:                                               ; preds = %34
  %42 = shl nuw nsw i32 %31, 1
  %.not9.i9.i = icmp eq ptr %18, null
  %43 = zext nneg i32 %42 to i64
  %44 = shl nuw nsw i64 %43, 2
  br i1 %.not9.i9.i, label %47, label %45

45:                                               ; preds = %41
  %46 = tail call ptr @realloc(ptr noundef nonnull %18, i64 noundef %44) #17
  br label %.sink.split.sink.split

47:                                               ; preds = %41
  %48 = tail call noalias ptr @malloc(i64 noundef %44) #16
  br label %.sink.split.sink.split

49:                                               ; preds = %28
  %50 = load i32, ptr %6, align 4, !tbaa !58
  %51 = load i32, ptr %4, align 8, !tbaa !59
  %52 = icmp eq i32 %50, %51
  br i1 %52, label %53, label %.sink.split

53:                                               ; preds = %49
  %54 = icmp slt i32 %50, 16
  br i1 %54, label %55, label %60

55:                                               ; preds = %53
  %.not9.i.i28 = icmp eq ptr %19, null
  br i1 %.not9.i.i28, label %58, label %56

56:                                               ; preds = %55
  %57 = tail call dereferenceable_or_null(64) ptr @realloc(ptr noundef nonnull %19, i64 noundef 64) #17
  br label %.sink.split.sink.split

58:                                               ; preds = %55
  %59 = tail call noalias dereferenceable_or_null(64) ptr @malloc(i64 noundef 64) #16
  br label %.sink.split.sink.split

60:                                               ; preds = %53
  %61 = shl nuw nsw i32 %50, 1
  %.not9.i9.i27 = icmp eq ptr %19, null
  %62 = zext nneg i32 %61 to i64
  %63 = shl nuw nsw i64 %62, 2
  br i1 %.not9.i9.i27, label %66, label %64

64:                                               ; preds = %60
  %65 = tail call ptr @realloc(ptr noundef nonnull %19, i64 noundef %63) #17
  br label %.sink.split.sink.split

66:                                               ; preds = %60
  %67 = tail call noalias ptr @malloc(i64 noundef %63) #16
  br label %.sink.split.sink.split

68:                                               ; preds = %28
  %69 = load i32, ptr %6, align 4, !tbaa !58
  %70 = load i32, ptr %4, align 8, !tbaa !59
  %71 = icmp eq i32 %69, %70
  br i1 %71, label %72, label %.sink.split

72:                                               ; preds = %68
  %73 = icmp slt i32 %69, 16
  br i1 %73, label %74, label %79

74:                                               ; preds = %72
  %.not9.i.i35 = icmp eq ptr %20, null
  br i1 %.not9.i.i35, label %77, label %75

75:                                               ; preds = %74
  %76 = tail call dereferenceable_or_null(64) ptr @realloc(ptr noundef nonnull %20, i64 noundef 64) #17
  br label %.sink.split.sink.split

77:                                               ; preds = %74
  %78 = tail call noalias dereferenceable_or_null(64) ptr @malloc(i64 noundef 64) #16
  br label %.sink.split.sink.split

79:                                               ; preds = %72
  %80 = shl nuw nsw i32 %69, 1
  %.not9.i9.i34 = icmp eq ptr %20, null
  %81 = zext nneg i32 %80 to i64
  %82 = shl nuw nsw i64 %81, 2
  br i1 %.not9.i9.i34, label %85, label %83

83:                                               ; preds = %79
  %84 = tail call ptr @realloc(ptr noundef nonnull %20, i64 noundef %82) #17
  br label %.sink.split.sink.split

85:                                               ; preds = %79
  %86 = tail call noalias ptr @malloc(i64 noundef %82) #16
  br label %.sink.split.sink.split

.sink.split.sink.split:                           ; preds = %77, %75, %85, %83, %58, %56, %66, %64, %39, %37, %47, %45
  %.sink61.sink = phi ptr [ %38, %37 ], [ %40, %39 ], [ %46, %45 ], [ %48, %47 ], [ %57, %56 ], [ %59, %58 ], [ %65, %64 ], [ %67, %66 ], [ %76, %75 ], [ %78, %77 ], [ %84, %83 ], [ %86, %85 ]
  %.sink60.sink = phi i32 [ 16, %37 ], [ 16, %39 ], [ %42, %45 ], [ %42, %47 ], [ 16, %56 ], [ 16, %58 ], [ %61, %64 ], [ %61, %66 ], [ 16, %75 ], [ 16, %77 ], [ %80, %83 ], [ %80, %85 ]
  %.sink67.ph = phi i32 [ %31, %37 ], [ %31, %39 ], [ %31, %45 ], [ %31, %47 ], [ %50, %56 ], [ %50, %58 ], [ %50, %64 ], [ %50, %66 ], [ %69, %75 ], [ %69, %77 ], [ %69, %83 ], [ %69, %85 ]
  %.sink62.ph = phi i32 [ 3, %37 ], [ 3, %39 ], [ 3, %45 ], [ 3, %47 ], [ 2, %56 ], [ 2, %58 ], [ 2, %64 ], [ 2, %66 ], [ 1, %75 ], [ 1, %77 ], [ 1, %83 ], [ 1, %85 ]
  store ptr %.sink61.sink, ptr %12, align 8, !tbaa !26
  store i32 %.sink60.sink, ptr %4, align 8, !tbaa !59
  br label %.sink.split

.sink.split:                                      ; preds = %.sink.split.sink.split, %68, %49, %30
  %.sink67 = phi i32 [ %31, %30 ], [ %50, %49 ], [ %69, %68 ], [ %.sink67.ph, %.sink.split.sink.split ]
  %.pre.i2649.sink = phi ptr [ %18, %30 ], [ %19, %49 ], [ %20, %68 ], [ %.sink61.sink, %.sink.split.sink.split ]
  %.sink62 = phi i32 [ 3, %30 ], [ 2, %49 ], [ 1, %68 ], [ %.sink62.ph, %.sink.split.sink.split ]
  %.pre.i55.ph = phi ptr [ %18, %30 ], [ %18, %49 ], [ %18, %68 ], [ %.sink61.sink, %.sink.split.sink.split ]
  %.pre.i2651.ph = phi ptr [ %18, %30 ], [ %19, %49 ], [ %19, %68 ], [ %.sink61.sink, %.sink.split.sink.split ]
  %87 = add nsw i32 %.sink67, 1
  store i32 %87, ptr %6, align 4, !tbaa !58
  %88 = sext i32 %.sink67 to i64
  %89 = getelementptr inbounds i32, ptr %.pre.i2649.sink, i64 %88
  store i32 %.sink62, ptr %89, align 4, !tbaa !25
  br label %90

90:                                               ; preds = %.sink.split, %28, %17
  %.pre.i55 = phi ptr [ %18, %28 ], [ %18, %17 ], [ %.pre.i55.ph, %.sink.split ]
  %.pre.i2651 = phi ptr [ %19, %28 ], [ %19, %17 ], [ %.pre.i2651.ph, %.sink.split ]
  %.pre.i3347 = phi ptr [ %20, %28 ], [ %20, %17 ], [ %.pre.i2649.sink, %.sink.split ]
  %indvars.iv.next = add nuw nsw i64 %indvars.iv, 1
  %91 = load ptr, ptr %13, align 8, !tbaa !60
  %92 = getelementptr i8, ptr %91, i64 4
  %.val = load i32, ptr %92, align 4, !tbaa !35
  %93 = sext i32 %.val to i64
  %94 = icmp slt i64 %indvars.iv.next, %93
  br i1 %94, label %17, label %.critedge, !llvm.loop !61

.critedge:                                        ; preds = %90, %Vec_IntAlloc.exit
  ret ptr %4
}